target datalayout = "e-m:e-p270:32:32-p271:32:32-p272:64:64-i64:64-i128:128-f80:128-n8:16:32:64-S128"
target triple = "x86_64-pc-linux-gnu"

; Function Attrs: nounwind uwtable
define internal i32 @asn1_print_integer_ctx(ptr noundef %0, ptr noundef %1, ptr noundef %2) #0 {
  %4 = alloca i32, align 4
  %5 = alloca ptr, align 8
  %6 = alloca ptr, align 8
  %7 = alloca ptr, align 8
  %8 = alloca ptr, align 8
  %9 = alloca ptr, align 8
  %10 = alloca i32, align 4
  %11 = alloca i32, align 4
  store ptr %0, ptr %5, align 8, !tbaa !19
  store ptr %1, ptr %6, align 8, !tbaa !66
  store ptr %2, ptr %7, align 8, !tbaa !6
  call void @llvm.lifetime.start.p0(i64 8, ptr %8) #5
  store ptr null, ptr %8, align 8, !tbaa !78
  call void @llvm.lifetime.start.p0(i64 8, ptr %9) #5
  store ptr null, ptr %9, align 8, !tbaa !27
  call void @llvm.lifetime.start.p0(i64 4, ptr %10) #5
  store i32 1, ptr %10, align 4, !tbaa !23
  %12 = load ptr, ptr %6, align 8, !tbaa !66
  %13 = call ptr @ASN1_INTEGER_to_BN(ptr noundef %12, ptr noundef null)
  store ptr %13, ptr %8, align 8, !tbaa !78
  %14 = load ptr, ptr %8, align 8, !tbaa !78
  %15 = icmp eq ptr %14, null
  br i1 %15, label %16, label %17

16:                                               ; preds = %3
  store i32 0, ptr %4, align 4
  store i32 1, ptr %11, align 4
  br label %33

17:                                               ; preds = %3
  %18 = load ptr, ptr %8, align 8, !tbaa !78
  %19 = call ptr @BN_bn2dec(ptr noundef %18)
  store ptr %19, ptr %9, align 8, !tbaa !27
  %20 = load ptr, ptr %8, align 8, !tbaa !78
  call void @BN_free(ptr noundef %20)
  %21 = load ptr, ptr %9, align 8, !tbaa !27
  %22 = icmp eq ptr %21, null
  br i1 %22, label %23, label %24

23:                                               ; preds = %17
  store i32 0, ptr %4, align 4
  store i32 1, ptr %11, align 4
  br label %33

24:                                               ; preds = %17
  %25 = load ptr, ptr %5, align 8, !tbaa !19
  %26 = load ptr, ptr %9, align 8, !tbaa !27
  %27 = call i32 @BIO_puts(ptr noundef %25, ptr noundef %26)
  %28 = icmp sle i32 %27, 0
  br i1 %28, label %29, label %30

29:                                               ; preds = %24
  store i32 0, ptr %10, align 4, !tbaa !23
  br label %30

30:                                               ; preds = %29, %24
  %31 = load ptr, ptr %9, align 8, !tbaa !27
  call void @free(ptr noundef %31) #5
  %32 = load i32, ptr %10, align 4, !tbaa !23
  store i32 %32, ptr %4, align 4
  store i32 1, ptr %11, align 4
  br label %33

33:                                               ; preds = %30, %23, %16
  call void @llvm.lifetime.end.p0(i64 4, ptr %10) #5
  call void @llvm.lifetime.end.p0(i64 8, ptr %9) #5
  call void @llvm.lifetime.end.p0(i64 8, ptr %8) #5
  %34 = load i32, ptr %4, align 4
  ret i32 %34
}