; Function Attrs: nounwind uwtable
define internal fastcc range(i32 0, 2) i32 @asn1_print_integer_ctx(ptr noundef %0, ptr noundef %1) unnamed_addr #0 {
  %3 = tail call ptr @ASN1_INTEGER_to_BN(ptr noundef %1, ptr noundef null) #8
  %4 = icmp eq ptr %3, null
  br i1 %4, label %11, label %5

5:                                                ; preds = %2
  %6 = tail call ptr @BN_bn2dec(ptr noundef nonnull %3) #8
  tail call void @BN_free(ptr noundef nonnull %3) #8
  %7 = icmp eq ptr %6, null
  br i1 %7, label %11, label %8

8:                                                ; preds = %5
  %9 = tail call i32 @BIO_puts(ptr noundef %0, ptr noundef nonnull %6) #8
  %10 = icmp sgt i32 %9, 0
  %spec.select = zext i1 %10 to i32
  tail call void @free(ptr noundef nonnull %6) #8
  br label %11

11:                                               ; preds = %5, %2, %8
  %.09 = phi i32 [ %spec.select, %8 ], [ 0, %2 ], [ 0, %5 ]
  ret i32 %.09
}